target datalayout = "e-m:e-p270:32:32-p271:32:32-p272:64:64-i64:64-i128:128-f80:128-n8:16:32:64-S128"
target triple = "x86_64-pc-linux-gnu"

%struct.x509_store_ctx_st = type { ptr, ptr, ptr, ptr, ptr, ptr, ptr, ptr, ptr, ptr, ptr, ptr, ptr, ptr, ptr, ptr, ptr, ptr, i32, i32, ptr, ptr, i32, i32, i32, ptr, ptr, ptr, i32, i32, ptr, %struct.crypto_ex_data_st, ptr, i32, ptr, ptr, ptr }
%struct.crypto_ex_data_st = type { ptr, ptr }

; Function Attrs: inlinehint nounwind uwtable
define internal ptr @ossl_check_const_X509_sk_type(ptr noundef %0) #3 {
  %2 = alloca ptr, align 8
  store ptr %0, ptr %2, align 8, !tbaa !103
  %3 = load ptr, ptr %2, align 8, !tbaa !103
  ret ptr %3
}

; Function Attrs: nounwind uwtable
define i32 @X509v3_addr_validate_path(ptr noundef %0) #0 {
  %2 = alloca i32, align 4
  %3 = alloca ptr, align 8
  store ptr %0, ptr %3, align 8, !tbaa !85
  %4 = load ptr, ptr %3, align 8, !tbaa !85
  %5 = getelementptr inbounds nuw %struct.x509_store_ctx_st, ptr %4, i32 0, i32 20
  %6 = load ptr, ptr %5, align 8, !tbaa !87
  %7 = icmp eq ptr %6, null
  br i1 %7, label %20, label %8

8:                                                ; preds = %1
  %9 = load ptr, ptr %3, align 8, !tbaa !85
  %10 = getelementptr inbounds nuw %struct.x509_store_ctx_st, ptr %9, i32 0, i32 20
  %11 = load ptr, ptr %10, align 8, !tbaa !87
  %12 = call ptr @ossl_check_const_X509_sk_type(ptr noundef %11)
  %13 = call i32 @OPENSSL_sk_num(ptr noundef %12)
  %14 = icmp eq i32 %13, 0
  br i1 %14, label %20, label %15

15:                                               ; preds = %8
  %16 = load ptr, ptr %3, align 8, !tbaa !85
  %17 = getelementptr inbounds nuw %struct.x509_store_ctx_st, ptr %16, i32 0, i32 7
  %18 = load ptr, ptr %17, align 8, !tbaa !101
  %19 = icmp eq ptr %18, null
  br i1 %19, label %20, label %23

20:                                               ; preds = %15, %8, %1
  %21 = load ptr, ptr %3, align 8, !tbaa !85
  %22 = getelementptr inbounds nuw %struct.x509_store_ctx_st, ptr %21, i32 0, i32 24
  store i32 1, ptr %22, align 8, !tbaa !102
  store i32 0, ptr %2, align 4
  br label %29

23:                                               ; preds = %15
  %24 = load ptr, ptr %3, align 8, !tbaa !85
  %25 = load ptr, ptr %3, align 8, !tbaa !85
  %26 = getelementptr inbounds nuw %struct.x509_store_ctx_st, ptr %25, i32 0, i32 20
  %27 = load ptr, ptr %26, align 8, !tbaa !87
  %28 = call i32 @addr_validate_path_internal(ptr noundef %24, ptr noundef %27, ptr noundef null)
  store i32 %28, ptr %2, align 4
  br label %29

29:                                               ; preds = %23, %20
  %30 = load i32, ptr %2, align 4
  ret i32 %30
}