; Function Attrs: nounwind uwtable
define range(i32 0, 2) i32 @X509v3_addr_validate_path(ptr noundef %0) local_unnamed_addr #1 {
  %2 = getelementptr inbounds nuw i8, ptr %0, i64 152
  %3 = load ptr, ptr %2, align 8, !tbaa !56
  %4 = icmp eq ptr %3, null
  br i1 %4, label %12, label %5

5:                                                ; preds = %1
  %6 = tail call i32 @OPENSSL_sk_num(ptr noundef nonnull %3) #15
  %7 = icmp eq i32 %6, 0
  br i1 %7, label %12, label %8

8:                                                ; preds = %5
  %9 = getelementptr inbounds nuw i8, ptr %0, i64 56
  %10 = load ptr, ptr %9, align 8, !tbaa !71
  %11 = icmp eq ptr %10, null
  br i1 %11, label %12, label %14

12:                                               ; preds = %8, %5, %1
  %13 = getelementptr inbounds nuw i8, ptr %0, i64 176
  store i32 1, ptr %13, align 8, !tbaa !72
  br label %17

14:                                               ; preds = %8
  %15 = load ptr, ptr %2, align 8, !tbaa !56
  %16 = tail call fastcc i32 @addr_validate_path_internal(ptr noundef nonnull %0, ptr noundef %15, ptr noundef null)
  br label %17

17:                                               ; preds = %14, %12
  %.0 = phi i32 [ 0, %12 ], [ %16, %14 ]
  ret i32 %.0
}